target datalayout = "e-m:e-p270:32:32-p271:32:32-p272:64:64-i64:64-i128:128-f80:128-n8:16:32:64-S128"
target triple = "x86_64-pc-linux-gnu"

%"class.google::protobuf::util::status_internal::Status" = type { i32, %"class.std::__cxx11::basic_string" }
%"class.std::__cxx11::basic_string" = type { %"struct.std::__cxx11::basic_string<char>::_Alloc_hider", i64, %union.anon }
%"struct.std::__cxx11::basic_string<char>::_Alloc_hider" = type { ptr }
%union.anon = type { i64, [8 x i8] }

@_ZN6google8protobuf4util15status_internal6StatusC1Ev = hidden unnamed_addr alias void (ptr), ptr @_ZN6google8protobuf4util15status_internal6StatusC2Ev

; Function Attrs: mustprogress uwtable
define hidden void @_ZN6google8protobuf4util15status_internal8OkStatusEv(ptr dead_on_unwind noalias writable sret(%"class.google::protobuf::util::status_internal::Status") align 8 %0) #1 {
  %2 = alloca ptr, align 8
  store ptr %0, ptr %2, align 8
  call void @_ZN6google8protobuf4util15status_internal6StatusC1Ev(ptr noundef nonnull align 8 dereferenceable(40) %0)
  ret void
}