; Function Attrs: mustprogress nofree norecurse nosync nounwind willreturn memory(argmem: write) uwtable
define hidden void @_ZN6google8protobuf4util15status_internal8OkStatusEv(ptr dead_on_unwind noalias writable sret(%"class.google::protobuf::util::status_internal::Status") align 8 initializes((0, 4)) %0) local_unnamed_addr #0 personality ptr @__gxx_personality_v0 {
  store i32 0, ptr %0, align 8, !tbaa !3
  %2 = getelementptr inbounds nuw i8, ptr %0, i64 8
  %3 = getelementptr inbounds nuw i8, ptr %0, i64 24
  store ptr %3, ptr %2, align 8, !tbaa !13
  %4 = getelementptr inbounds nuw i8, ptr %0, i64 16
  store i64 0, ptr %4, align 8, !tbaa !14
  store i8 0, ptr %3, align 8, !tbaa !15
  ret void
}